; Function Attrs: mustprogress nounwind uwtable
define noundef i64 @_ZN2cv4gapi3wip6onevpl10SharedLock11shared_lockEv(ptr noundef nonnull align 8 captures(none) dereferenceable(16) %0) local_unnamed_addr #1 align 2 personality ptr @__gxx_personality_v0 {
  %2 = load atomic i8, ptr %0 seq_cst, align 8
  %3 = trunc i8 %2 to i1
  %4 = getelementptr inbounds nuw i8, ptr %0, i64 8
  br label %5

5:                                                ; preds = %14, %1
  %.06 = phi i64 [ 0, %1 ], [ %.17, %14 ]
  %.05 = phi i8 [ 0, %1 ], [ %.1, %14 ]
  %.0.in = phi i1 [ %3, %1 ], [ %16, %14 ]
  br i1 %.0.in, label %8, label %6

6:                                                ; preds = %5
  %7 = atomicrmw add ptr %4, i64 1 seq_cst, align 8
  br label %14

8:                                                ; preds = %5
  %9 = trunc nuw i8 %.05 to i1
  br i1 %9, label %10, label %12

10:                                               ; preds = %8
  %11 = atomicrmw sub ptr %4, i64 1 seq_cst, align 8
  br label %12

12:                                               ; preds = %10, %8
  %13 = tail call noundef i32 @sched_yield() #3
  br label %14

14:                                               ; preds = %12, %6
  %.17 = phi i64 [ %.06, %12 ], [ %7, %6 ]
  %.1 = phi i8 [ 0, %12 ], [ 1, %6 ]
  %15 = load atomic i8, ptr %0 seq_cst, align 8
  %16 = trunc i8 %15 to i1
  %17 = trunc nuw i8 %.1 to i1
  %18 = xor i1 %17, true
  %19 = select i1 %16, i1 true, i1 %18
  br i1 %19, label %5, label %20, !llvm.loop !3

20:                                               ; preds = %14
  ret i64 %.17
}